target datalayout = "e-m:e-p270:32:32-p271:32:32-p272:64:64-i64:64-i128:128-f80:128-n8:16:32:64-S128"
target triple = "x86_64-pc-linux-gnu"

%struct.If_Box_t_ = type { ptr, i8, i8, i8, i8, i32, i32, i32, ptr }
%struct.If_LibBox_t_ = type { i32, ptr }
%struct.Vec_Ptr_t_ = type { i32, i32, ptr }

; Function Attrs: inlinehint nounwind uwtable
define internal ptr @Vec_PtrEntry(ptr noundef %0, i32 noundef %1) #4 {
  %3 = alloca ptr, align 8
  %4 = alloca i32, align 4
  store ptr %0, ptr %3, align 8, !tbaa !27
  store i32 %1, ptr %4, align 4, !tbaa !8
  %5 = load ptr, ptr %3, align 8, !tbaa !27
  %6 = getelementptr inbounds nuw %struct.Vec_Ptr_t_, ptr %5, i32 0, i32 2
  %7 = load ptr, ptr %6, align 8, !tbaa !31
  %8 = load i32, ptr %4, align 4, !tbaa !8
  %9 = sext i32 %8 to i64
  %10 = getelementptr inbounds ptr, ptr %7, i64 %9
  %11 = load ptr, ptr %10, align 8, !tbaa !34
  ret ptr %11
}

; Function Attrs: inlinehint nounwind uwtable
define internal i32 @Vec_PtrSize(ptr noundef %0) #4 {
  %2 = alloca ptr, align 8
  store ptr %0, ptr %2, align 8, !tbaa !27
  %3 = load ptr, ptr %2, align 8, !tbaa !27
  %4 = getelementptr inbounds nuw %struct.Vec_Ptr_t_, ptr %3, i32 0, i32 1
  %5 = load i32, ptr %4, align 4, !tbaa !28
  ret i32 %5
}

; Function Attrs: nounwind uwtable
define ptr @If_LibBoxFindBox(ptr noundef %0, ptr noundef %1) #0 {
  %3 = alloca ptr, align 8
  %4 = alloca ptr, align 8
  %5 = alloca ptr, align 8
  %6 = alloca ptr, align 8
  %7 = alloca i32, align 4
  %8 = alloca i32, align 4
  store ptr %0, ptr %4, align 8, !tbaa !22
  store ptr %1, ptr %5, align 8, !tbaa !3
  call void @llvm.lifetime.start.p0(i64 8, ptr %6) #10
  call void @llvm.lifetime.start.p0(i64 4, ptr %7) #10
  %9 = load ptr, ptr %4, align 8, !tbaa !22
  %10 = icmp eq ptr %9, null
  br i1 %10, label %11, label %12

11:                                               ; preds = %2
  store ptr null, ptr %3, align 8
  store i32 1, ptr %8, align 4
  br label %47

12:                                               ; preds = %2
  store i32 0, ptr %7, align 4, !tbaa !8
  br label %13

13:                                               ; preds = %43, %12
  %14 = load i32, ptr %7, align 4, !tbaa !8
  %15 = load ptr, ptr %4, align 8, !tbaa !22
  %16 = getelementptr inbounds nuw %struct.If_LibBox_t_, ptr %15, i32 0, i32 1
  %17 = load ptr, ptr %16, align 8, !tbaa !24
  %18 = call i32 @Vec_PtrSize(ptr noundef %17)
  %19 = icmp slt i32 %14, %18
  br i1 %19, label %20, label %26

20:                                               ; preds = %13
  %21 = load ptr, ptr %4, align 8, !tbaa !22
  %22 = getelementptr inbounds nuw %struct.If_LibBox_t_, ptr %21, i32 0, i32 1
  %23 = load ptr, ptr %22, align 8, !tbaa !24
  %24 = load i32, ptr %7, align 4, !tbaa !8
  %25 = call ptr @Vec_PtrEntry(ptr noundef %23, i32 noundef %24)
  store ptr %25, ptr %6, align 8, !tbaa !10
  br label %26

26:                                               ; preds = %20, %13
  %27 = phi i1 [ false, %13 ], [ true, %20 ]
  br i1 %27, label %28, label %46

28:                                               ; preds = %26
  %29 = load ptr, ptr %6, align 8, !tbaa !10
  %30 = icmp eq ptr %29, null
  br i1 %30, label %31, label %32

31:                                               ; preds = %28
  br label %42

32:                                               ; preds = %28
  %33 = load ptr, ptr %6, align 8, !tbaa !10
  %34 = getelementptr inbounds nuw %struct.If_Box_t_, ptr %33, i32 0, i32 0
  %35 = load ptr, ptr %34, align 8, !tbaa !12
  %36 = load ptr, ptr %5, align 8, !tbaa !3
  %37 = call i32 @strcmp(ptr noundef %35, ptr noundef %36) #13
  %38 = icmp ne i32 %37, 0
  br i1 %38, label %41, label %39

39:                                               ; preds = %32
  %40 = load ptr, ptr %6, align 8, !tbaa !10
  store ptr %40, ptr %3, align 8
  store i32 1, ptr %8, align 4
  br label %47

41:                                               ; preds = %32
  br label %42

42:                                               ; preds = %41, %31
  br label %43

43:                                               ; preds = %42
  %44 = load i32, ptr %7, align 4, !tbaa !8
  %45 = add nsw i32 %44, 1
  store i32 %45, ptr %7, align 4, !tbaa !8
  br label %13, !llvm.loop !35

46:                                               ; preds = %26
  store ptr null, ptr %3, align 8
  store i32 1, ptr %8, align 4
  br label %47

47:                                               ; preds = %46, %39, %11
  call void @llvm.lifetime.end.p0(i64 4, ptr %7) #10
  call void @llvm.lifetime.end.p0(i64 8, ptr %6) #10
  %48 = load ptr, ptr %3, align 8
  ret ptr %48
}