; Function Attrs: nofree nounwind memory(read, inaccessiblemem: none) uwtable
define ptr @If_LibBoxFindBox(ptr noundef readonly %0, ptr noundef readonly captures(none) %1) local_unnamed_addr #7 {
  %3 = icmp eq ptr %0, null
  br i1 %3, label %.critedge, label %.preheader

.preheader:                                       ; preds = %2
  %4 = getelementptr inbounds nuw i8, ptr %0, i64 8
  %5 = load ptr, ptr %4, align 8, !tbaa !22
  %6 = getelementptr i8, ptr %5, i64 4
  %.val = load i32, ptr %6, align 4, !tbaa !18
  %7 = icmp sgt i32 %.val, 0
  br i1 %7, label %.lr.ph, label %.critedge

.lr.ph:                                           ; preds = %.preheader
  %8 = getelementptr i8, ptr %5, i64 8
  %.val13 = load ptr, ptr %8, align 8, !tbaa !21
  %wide.trip.count = zext nneg i32 %.val to i64
  br label %9

9:                                                ; preds = %.lr.ph, %16
  %indvars.iv = phi i64 [ 0, %.lr.ph ], [ %indvars.iv.next, %16 ]
  %10 = getelementptr inbounds nuw ptr, ptr %.val13, i64 %indvars.iv
  %11 = load ptr, ptr %10, align 8, !tbaa !25
  %12 = icmp eq ptr %11, null
  br i1 %12, label %16, label %13

13:                                               ; preds = %9
  %14 = load ptr, ptr %11, align 8, !tbaa !3
  %15 = tail call i32 @strcmp(ptr noundef nonnull dereferenceable(1) %14, ptr noundef nonnull dereferenceable(1) %1) #21
  %.not = icmp eq i32 %15, 0
  br i1 %.not, label %.critedge, label %16

16:                                               ; preds = %9, %13
  %indvars.iv.next = add nuw nsw i64 %indvars.iv, 1
  %exitcond.not = icmp eq i64 %indvars.iv.next, %wide.trip.count
  br i1 %exitcond.not, label %.critedge, label %9, !llvm.loop !28

.critedge:                                        ; preds = %13, %16, %.preheader, %2
  %.010 = phi ptr [ null, %2 ], [ null, %.preheader ], [ %11, %13 ], [ null, %16 ]
  ret ptr %.010
}